ccopy_reg
_reconstructor
p0
(ccollections
Counter
p1
c__builtin__
dict
p2
(dp3
S'Death'
p4
F0.00025088981327624145
sS'Social Processes'
p5
F0.002581474737101677
sS'Auxiliary Verbs'
p6
F0.0018541793016635946
sS'Religion'
p7
F0.00023142482360670764
sS'Unique Words'
p8
F0.0006803013889502077
sS'Health'
p9
F0.00019805626988750677
sS'Body'
p10
F0.0003997969842481753
sS'Numerals'
p11
F0.00018213668905063806
sS'Tentative'
p12
F0.000350161260590864
sS'Present Tense'
p13
F0.002459123373464607
sS'Third Person Singular'
p14
F0.00015690172030049236
sS'Space'
p15
F0.001599535526093943
sS'Leisure'
p16
F0.0004625715759324219
sS'Total Function Words'
p17
F0.012900213350022805
sS'Dictionary Words'
p18
F0.020823437395006552
sS'Negations'
p19
F0.0006068210529477173
sS'Anxiety'
p20
F0.00011873643698415639
sS'Total Pronouns'
p21
F0.004570101503125552
sS'Personal Pronouns'
p22
F0.003435362123211977
sS'Positive Emotion'
p23
F0.0006442216402413216
sS'Motion'
p24
F0.0005839496900860151
sS'Sadness'
p25
F0.00014223346022809366
sS'First Person Singular'
p26
F0.0019075689876143157
sS'Time'
p27
F0.001347116320772238
sS'Apostrophe'
p28
F0.0002412963540819712
sS'Quote Marks'
p29
F7.966742200459206e-05
sS'Negative Emotion'
p30
F0.0010287247040348631
sS'Family'
p31
F8.912184555836564e-05
sS'Semicolon'
p32
F1.1609475981471966e-05
sS'Inclusive'
p33
F0.0011260496523825322
sS'Feel'
p34
F0.0001994466262924735
sS'Number'
p35
F0.00021404536854462383
sS'Discrepancy'
p36
F0.0003197124553220932
sS'Quantifiers'
p37
F0.0004947583267074011
sS'See'
p38
F0.00031547186828694484
sS'First Person Plural'
p39
F0.00030553081999143286
sS'Sentences'
p40
I6814
sS'Anger'
p41
F0.0006100883904993891
sS'Affective Processes'
p42
F0.0016746147719621449
sS'Question Marks'
p43
F0.00016670373295550763
sS'Second Person'
p44
F0.0008122462117815476
sS'Third Person Plural'
p45
F0.0002531143835241882
sS'Assent'
p46
F0.00012255991709781482
sS'Relativity'
p47
F0.003514612438295079
sS'Adverbs'
p48
F0.000994035311730944
sS'Perceptual Processes'
p49
F0.0008237166521225229
sS'Prepositions'
p50
F0.002798161782815737
sS'Common Verbs'
p51
F0.0035828789377789438
sS'Word Count'
p52
I379273
sS'Past Tense'
p53
F0.0006524247430306252
sS'Other Punctuation'
p54
F0.0005873560632781835
sS'Six Letter Words'
p55
F0.002627008909364336
sS'Inhibition'
p56
F0.0001850564375010681
sS'Hear'
p57
F0.000287942811468604
sS'Comma'
p58
F0.0015065206826016706
sS'Friends'
p59
F3.065735872951579e-05
sS'Achievement'
p60
F0.00026917300000155365
sS'Articles'
p61
F0.0015829207670545909
sS'Future Tense'
p62
F0.00022356930991864577
sS' Impersonal Pronouns'
p63
F0.0011347393799135744
sS'Biological Processes'
p64
F0.0008999777009349465
sS'Certainty'
p65
F0.00041745451059125243
sS'Work'
p66
F0.00021939824070374563
sS'Ingestion'
p67
F9.072075542407732e-05
sS'Exclamation Marks'
p68
F9.364050387450742e-05
sS'Parenthesis'
p69
F0.0006654940932373122
sS'Swear Words'
p70
F0.0004958706118313744
sS'Words Per Sentence'
p71
F55.66084531846199
sS'Cognitive Processes'
p72
F0.0033928172172199957
sS'Fillers'
p73
F0.00011268838662255124
sS'Exclusive'
p74
F0.0004330960201471279
sS'All Punctuation'
p75
F0.0032817277404631564
sS'Money'
p76
F0.00019958566193297014
sS'Causation'
p77
F0.0004077220157564855
sS'Insight'
p78
F0.0003829041539278299
sS'Humans'
p79
F0.0002200239010859807
sS'Conjunctions'
p80
F0.0013507312474251515
sS'Dash'
p81
F0.00010962960253162448
sS'Nonfluencies'
p82
F2.287136286170226e-05
sS'Colon'
p83
F0.00013479505346152183
sS'Home'
p84
F7.93893507235987e-05
sS'Sexual'
p85
F0.00029308713016698085
stp86
Rp87
.