ccopy_reg
_reconstructor
p0
(ccollections
Counter
p1
c__builtin__
dict
p2
(dp3
S'Death'
p4
F0.00020386307597476945
sS'Social Processes'
p5
F0.0064072191910392855
sS'Auxiliary Verbs'
p6
F0.004154203390105221
sS'Religion'
p7
F0.0006701176594138389
sS'Unique Words'
p8
F0.002638711588221814
sS'Health'
p9
F0.00030020481994349113
sS'Body'
p10
F0.0008111777555318648
sS'Numerals'
p11
F0.00032585211014676856
sS'Present Tense'
p12
F0.005590780452901621
sS'Third Person Singular'
p13
F0.0006319755355217852
sS'Tentative'
p14
F0.0007779678028327492
sS'Leisure'
p15
F0.0012406054607303307
sS'Negations'
p16
F0.0013777198198940063
sS'Dictionary Words'
p17
F0.045681440777578616
sS'Total Function Words'
p18
F0.027929899031369138
sS'Anxiety'
p19
F0.00011113825754753559
sS'Total Pronouns'
p20
F0.010812305689158619
sS'Personal Pronouns'
p21
F0.007766525571812991
sS'Positive Emotion'
p22
F0.001505627459497531
sS'Motion'
p23
F0.0013464827356720658
sS'Sadness'
p24
F0.00020452069880049452
sS'Space'
p25
F0.0034581096290752424
sS'First Person Singular'
p26
F0.004083508936339776
sS'Time'
p27
F0.0030109261075821994
sS'Apostrophe'
p28
F0.0003738585764246982
sS'Quote Marks'
p29
F0.00020945286999343247
sS'Negative Emotion'
p30
F0.0014891868888544043
sS'Family'
p31
F0.00020978168140629497
sS'Semicolon'
p32
F1.3152456514501252e-05
sS'Inclusive'
p33
F0.0020941998885214623
sS'Quantifiers'
p34
F0.0010863929080978034
sS'Number'
p35
F0.00038043480468194876
sS'Discrepancy'
p36
F0.0008157811153119402
sS'Feel'
p37
F0.00043994967041006695
sS'See'
p38
F0.0007059581034158548
sS' Impersonal Pronouns'
p39
F0.003045780117345628
sS'Sentences'
p40
I3264
sS'Anger'
p41
F0.0008914077402703223
sS'Affective Processes'
p42
F0.003000732953783461
sS'Question Marks'
p43
F0.00038865509000351203
sS'Second Person'
p44
F0.0020096953554157916
sS'Third Person Plural'
p45
F0.00041890573998686493
sS'Humans'
p46
F0.0006589380713765129
sS'Relativity'
p47
F0.007595214825711611
sS'Adverbs'
p48
F0.002353303281857137
sS'Perceptual Processes'
p49
F0.0021418775433865293
sS'Prepositions'
p50
F0.005337924476410335
sS'Common Verbs'
p51
F0.008272237524795563
sS'Conjunctions'
p52
F0.0025140920627469148
sS'Past Tense'
p53
F0.0017025854958021872
sS'Other Punctuation'
p54
F0.0011810905950022125
sS'Six Letter Words'
p55
F0.005541129929559378
sS'Inhibition'
p56
F0.0003103979737422296
sS'Hear'
p57
F0.0009045601967848237
sS'Colon'
p58
F0.0003833941073977115
sS'Friends'
p59
F6.050129996670576e-05
sS'Achievement'
p60
F0.0006553211458350251
sS'Articles'
p61
F0.003055973271144367
sS'Future Tense'
p62
F0.0004840103997336461
sS'First Person Plural'
p63
F0.0006224400045487719
sS'Biological Processes'
p64
F0.0017019278729764622
sS'Certainty'
p65
F0.0010110950945522838
sS'Work'
p66
F0.0007605407979510349
sS'Ingestion'
p67
F0.00022819512052659675
sS'Exclamation Marks'
p68
F0.00018018865424866717
sS'Parenthesis'
p69
F0.0016006539578148026
sS'Swear Words'
p70
F0.0007283172794905069
sS'Words Per Sentence'
p71
F53.42892156862745
sS'Cognitive Processes'
p72
F0.00731572512477846
sS'Fillers'
p73
F0.00036169255414878447
sS'Exclusive'
p74
F0.0009910375983676694
sS'All Punctuation'
p75
F0.008100597967281322
sS'Money'
p76
F0.0003843805416362991
sS'Causation'
p77
F0.0007158224458017307
sS'Insight'
p78
F0.0009749258391374055
sS'Assent'
p79
F0.00045112925844739303
sS'Word Count'
p80
I174392
sS'Dash'
p81
F0.00044882757855735524
sS'Nonfluencies'
p82
F0.0001759141058814543
sS'Comma'
p83
F0.004153216955866633
sS'Home'
p84
F0.00021372741836064537
sS'Sexual'
p85
F0.0005017662160282228
stp86
Rp87
.