ccopy_reg
_reconstructor
p0
(ccollections
Counter
p1
c__builtin__
dict
p2
(dp3
S'Death'
p4
F0.00039651793506238444
sS'Social Processes'
p5
F0.007593633153218522
sS'Auxiliary Verbs'
p6
F0.004919160142236521
sS'Religion'
p7
F0.0005367827828395544
sS'Unique Words'
p8
F0.0033411806047433574
sS'Health'
p9
F0.0004886791331211018
sS'Body'
p10
F0.0010043322754301211
sS'Numerals'
p11
F0.00036369955721708507
sS'Tentative'
p12
F0.0011553867268824583
sS'Present Tense'
p13
F0.0063586730992317075
sS'Third Person Singular'
p14
F0.0009216119805871747
sS'Space'
p15
F0.004292463995437241
sS'Leisure'
p16
F0.0011279631508747422
sS'Total Function Words'
p17
F0.03432712409254357
sS'Dictionary Words'
p18
F0.054726218540906035
sS'Negations'
p19
F0.001362637030809623
sS'Anxiety'
p20
F0.000173532792442268
sS'Total Pronouns'
p21
F0.012942579175182524
sS'Exclusive'
p22
F0.0013145333810911702
sS'Positive Emotion'
p23
F0.0017861289750599246
sS'Motion'
p24
F0.001544711592828065
sS'Sadness'
p25
F0.0002387199813130682
sS'First Person Singular'
p26
F0.005044139718140537
sS'Time'
p27
F0.0032921778213853077
sS'Apostrophe'
p28
F0.00041989540969191276
sS'Quote Marks'
p29
F0.00023961911495266547
sS'Negative Emotion'
p30
F0.002061263868776681
sS'Family'
p31
F0.00026614355732078413
sS'Semicolon'
p32
F1.43861382335559e-05
sS'Inclusive'
p33
F0.002794956918688032
sS'Feel'
p34
F0.000531387981001971
sS'Number'
p35
F0.0006743502296979329
sS'Discrepancy'
p36
F0.00100478184224992
sS'Quantifiers'
p37
F0.0012628331968143288
sS'See'
p38
F0.0009139693446505983
sS'First Person Plural'
p39
F0.0005669037597660621
sS'Sentences'
p40
I2134
sS'Anger'
p41
F0.0013055420446951979
sS'Affective Processes'
p42
F0.003868072917547343
sS'Question Marks'
p43
F0.000558811557009687
sS'Second Person'
p44
F0.002539153398222616
sS'Third Person Plural'
p45
F0.000435180681565066
sS'Assent'
p46
F0.000350662119442925
sS'Relativity'
p47
F0.00887624729010399
sS'Adverbs'
p48
F0.0025773665779054993
sS'Perceptual Processes'
p49
F0.0023287561265568613
sS'Prepositions'
p50
F0.006621220121994103
sS'Common Verbs'
p51
F0.00939190043241301
sS'Word Count'
p52
I149143
sS'Past Tense'
p53
F0.0019794427075733316
sS'Other Punctuation'
p54
F0.0007202060453173922
sS'Six Letter Words'
p55
F0.007777955549335956
sS'Inhibition'
p56
F0.00034751515170433465
sS'Hear'
p57
F0.0007979811051425538
sS'Comma'
p58
F0.004470492456077496
sS'Friends'
p59
F7.103155752818225e-05
sS'Achievement'
p60
F0.0009103728100922091
sS'Articles'
p61
F0.00408386499105068
sS'Future Tense'
p62
F0.0005390306169385476
sS' Impersonal Pronouns'
p63
F0.003435589636901068
sS'Biological Processes'
p64
F0.002374162375356522
sS'Certainty'
p65
F0.0010393984873744138
sS'Work'
p66
F0.0007539235568022887
sS'Ingestion'
p67
F0.0004091058060167459
sS'Exclamation Marks'
p68
F0.00014026484777717
sS'Parenthesis'
p69
F0.0013190290492891565
sS'Swear Words'
p70
F0.000983202634899586
sS'Words Per Sentence'
p71
F69.88894095595127
sS'Cognitive Processes'
p72
F0.009176557925729467
sS'Fillers'
p73
F0.0004252902115294962
sS'Personal Pronouns'
p74
F0.009506989538281456
sS'All Punctuation'
p75
F0.008137609005174854
sS'Money'
p76
F0.0004450711516006356
sS'Causation'
p77
F0.000939145086559321
sS'Insight'
p78
F0.0012497957590401688
sS'Humans'
p79
F0.0005758950961620346
sS'Conjunctions'
p80
F0.003467958447926569
sS'Dash'
p81
F0.0006195030776825009
sS'Nonfluencies'
p82
F0.00011329083858925272
sS'Colon'
p83
F0.00024546348361004753
sS'Home'
p84
F0.00023737128085367232
sS'Sexual'
p85
F0.0006972781375076624
stp86
Rp87
.