ccopy_reg
_reconstructor
p0
(ccollections
Counter
p1
c__builtin__
dict
p2
(dp3
S'Death'
p4
F7.840865017859789e-05
sS'Social Processes'
p5
F0.002080925289659021
sS'Auxiliary Verbs'
p6
F0.001348576560374334
sS'Religion'
p7
F8.239995634848846e-05
sS'Unique Words'
p8
F0.0005391993522034409
sS'Health'
p9
F0.00010161044866151316
sS'Body'
p10
F0.0004233022655693287
sS'Numerals'
p11
F0.00013436154041070867
sS'Third Person Singular'
p12
F0.000302220211107041
sS'Tentative'
p13
F0.00022974256729304683
sS'Comma'
p14
F0.001174525769825648
sS'Leisure'
p15
F0.0002816295475016242
sS'Total Function Words'
p16
F0.009349093825029747
sS'Dictionary Words'
p17
F0.015196320061992607
sS'Negations'
p18
F0.0004375142996882849
sS'Anxiety'
p19
F4.077100601579805e-05
sS'Total Pronouns'
p20
F0.003785026514568186
sS'Personal Pronouns'
p21
F0.0028511354746674367
sS'Positive Emotion'
p22
F0.00045120410683174123
sS'Motion'
p23
F0.00045549382841620305
sS'Sadness'
p24
F4.9052033770150444e-05
sS'Space'
p25
F0.0011714670118262926
sS'First Person Singular'
p26
F0.001619202039463643
sS'Time'
p27
F0.0009049074427605169
sS'Apostrophe'
p28
F0.00017740796396261256
sS'Quote Marks'
p29
F6.464423918149865e-05
sS'Negative Emotion'
p30
F0.0006521122846918404
sS'Family'
p31
F6.818792222953233e-05
sS'Semicolon'
p32
F3.431777267569461e-06
sS'Inclusive'
p33
F0.0008664491562076459
sS'Feel'
p34
F0.00016457610113604847
sS'Number'
p35
F0.00011571057700000508
sS'Discrepancy'
p36
F0.00023101083280497467
sS'Present Tense'
p37
F0.001914185676767331
sS'See'
p38
F0.00022895922682979726
sS'First Person Plural'
p39
F0.00016972376703740268
sS'Sentences'
p40
I7336
sS'Anger'
p41
F0.00047145905309576533
sS'Affective Processes'
p42
F0.0011045846570355094
sS'Question Marks'
p43
F6.001880025564416e-05
sS'Second Person'
p44
F0.0006123484307002203
sS'Third Person Plural'
p45
F0.00014764102635912965
sS'Humans'
p46
F0.00022851160370794042
sS'Relativity'
p47
F0.0023699779205981057
sS'Perceptual Processes'
p48
F0.0006208532700155012
sS'Prepositions'
p49
F0.0017228267921735121
sS'Common Verbs'
p50
F0.00263836528407813
sS'Word Count'
p51
I517767
sS'Past Tense'
p52
F0.0004523604665632049
sS'Other Punctuation'
p53
F0.00042184749042329376
sS'Six Letter Words'
p54
F0.0016181202835858222
sS'Quantifiers'
p55
F0.0003023694188143266
sS'Inhibition'
p56
F0.00011101053422050778
sS'Hear'
p57
F0.00019020252486235523
sS'Adverbs'
p58
F0.0006452860320835228
sS'Friends'
p59
F1.8464453776596558e-05
sS'Achievement'
p60
F0.0001744984136705428
sS'Articles'
p61
F0.0010939909098182298
sS'Future Tense'
p62
F0.00013988222558027692
sS' Impersonal Pronouns'
p63
F0.0009338910399007501
sS'Biological Processes'
p64
F0.0008279908696547753
sS'Certainty'
p65
F0.00023384577924340162
sS'Work'
p66
F0.00015092359591941344
sS'Ingestion'
p67
F0.00011791139068246808
sS'Exclamation Marks'
p68
F6.788950681496107e-05
sS'Parenthesis'
p69
F0.00037055734104385893
sS'Swear Words'
p70
F0.0004954441920419302
sS'Words Per Sentence'
p71
F70.57892584514723
sS'Cognitive Processes'
p72
F0.0022875779642496166
sS'Fillers'
p73
F0.00018736757842392827
sS'Exclusive'
p74
F0.00033929832636751974
sS'All Punctuation'
p75
F0.0022709786068140906
sS'Money'
p76
F0.00021993216053901673
sS'Causation'
p77
F0.00021586625051548335
sS'Insight'
p78
F0.0002187384988807317
sS'Assent'
p79
F0.00017677383120664865
sS'Conjunctions'
p80
F0.0009675746798204808
sS'Dash'
p81
F0.0001270503627537129
sS'Nonfluencies'
p82
F3.614556708994356e-05
sS'Colon'
p83
F8.04602561537753e-05
sS'Home'
p84
F8.273567368988113e-05
sS'Sexual'
p85
F0.00030725597122793096
stp86
Rp87
.