ccopy_reg
_reconstructor
p0
(ccollections
Counter
p1
c__builtin__
dict
p2
(dp3
S'Death'
p4
F0.0003844043300306345
sS'Social Processes'
p5
F0.012182457774327027
sS'Auxiliary Verbs'
p6
F0.007166771139338268
sS'Religion'
p7
F0.0007582770345809776
sS'Unique Words'
p8
F0.007390568180794459
sS'Health'
p9
F0.0007319479708802494
sS'Body'
p10
F0.0015771109156736307
sS'Numerals'
p11
F0.0003580752663299061
sS'Present Tense'
p12
F0.010818612274629297
sS'Third Person Singular'
p13
F0.0005660748695656604
sS'Tentative'
p14
F0.0013691113124378765
sS'Leisure'
p15
F0.0021379199724991453
sS'Total Function Words'
p16
F0.05406409940307568
sS'Dictionary Words'
p17
F0.09061937144516698
sS'Negations'
p18
F0.0021774135680502384
sS'Anxiety'
p19
F0.0003212145771488864
sS'Total Pronouns'
p20
F0.018325028335706962
sS'Personal Pronouns'
p21
F0.012029749204862803
sS'Positive Emotion'
p22
F0.003983587337920206
sS'Motion'
p23
F0.0025196913961597076
sS'Sadness'
p24
F0.00026065773063721113
sS'Space'
p25
F0.008046161866942597
sS'First Person Singular'
p26
F0.005168395204452984
sS'Time'
p27
F0.0056396854446960215
sS'Apostrophe'
p28
F0.0005608090568255148
sS'Quote Marks'
p29
F0.0005121002889791672
sS'Negative Emotion'
p30
F0.0021142238151684897
sS'Family'
p31
F0.0004291637383218728
sS'Semicolon'
p32
F2.1063250960582717e-05
sS'Inclusive'
p33
F0.005476445249751506
sS'Quantifiers'
p34
F0.001932553275633464
sS'Number'
p35
F0.0008504287575335271
sS'Discrepancy'
p36
F0.0009899727951473874
sS'Feel'
p37
F0.0011637446155721952
sS'See'
p38
F0.0017403511106181466
sS'First Person Plural'
p39
F0.0008820236339744012
sS'Sentences'
p40
I1327
sS'Anger'
p41
F0.0010373651098086988
sS'Affective Processes'
p42
F0.006108342778568988
sS'Question Marks'
p43
F0.0006661253116284283
sS'Second Person'
p44
F0.00424687797492749
sS'Third Person Plural'
p45
F0.001166377521942268
sS'Humans'
p46
F0.001392807469768532
sS'Relativity'
p47
F0.015900121568869875
sS'Adverbs'
p48
F0.0041310300946442845
sS'Perceptual Processes'
p49
F0.005007787915878541
sS'Prepositions'
p50
F0.011584788028320494
sS'Common Verbs'
p51
F0.014272985432164863
sS'Word Count'
p52
I87156
sS'Past Tense'
p53
F0.002051034062286742
sS'Other Punctuation'
p54
F0.0029620196663319442
sS'Six Letter Words'
p55
F0.012077141519524116
sS'Inhibition'
p56
F0.0010347322034386258
sS'Hear'
p57
F0.0016824271704765444
sS'Comma'
p58
F0.006824493311228799
sS'Friends'
p59
F0.00011058206754305925
sS'Achievement'
p60
F0.001377010031548095
sS'Articles'
p61
F0.007406365619014897
sS'Future Tense'
p62
F0.0005028851166839123
sS' Impersonal Pronouns'
p63
F0.006295279130844158
sS'Biological Processes'
p64
F0.0034333099065749825
sS'Certainty'
p65
F0.0018246041144604776
sS'Work'
p66
F0.0011005548626904468
sS'Ingestion'
p67
F0.0005766064950459517
sS'Exclamation Marks'
p68
F0.0010215676715882617
sS'Parenthesis'
p69
F0.003830878768455981
sS'Swear Words'
p70
F0.0005713406823058062
sS'Words Per Sentence'
p71
F65.67897513187641
sS'Cognitive Processes'
p72
F0.014878553897281615
sS'Fillers'
p73
F0.0006924543753291568
sS'Exclusive'
p74
F0.0015139211627918823
sS'All Punctuation'
p75
F0.01648725968939612
sS'Money'
p76
F0.0009478462932262222
sS'Causation'
p77
F0.0014296681589495517
sS'Insight'
p78
F0.0015771109156736307
sS'Assent'
p79
F0.0018272370208305504
sS'Conjunctions'
p80
F0.005479078156121579
sS'Dash'
p81
F0.0019536165265940466
sS'Nonfluencies'
p82
F0.0001895692586452444
sS'Colon'
p83
F0.0003659739854401247
sS'Home'
p84
F0.0003528094535897604
sS'Sexual'
p85
F0.0007609099409510505
stp86
Rp87
.