ccopy_reg
_reconstructor
p0
(ccollections
Counter
p1
c__builtin__
dict
p2
(dp3
S'Death'
p4
F0.0002018838818541316
sS'Social Processes'
p5
F0.0033071841481452586
sS'Auxiliary Verbs'
p6
F0.0019243639100413328
sS'Religion'
p7
F0.00026674165634023143
sS'Unique Words'
p8
F0.0013260228228747697
sS'Health'
p9
F0.0002216598795659337
sS'Body'
p10
F0.0005036787284513014
sS'Numerals'
p11
F0.00018707531484718972
sS'Present Tense'
p12
F0.0024406018029162427
sS'Third Person Singular'
p13
F0.00039898778321868073
sS'Tentative'
p14
F0.00037864943486104534
sS'Comma'
p15
F0.002274146011749605
sS'Leisure'
p16
F0.0006228970653679474
sS'Total Function Words'
p17
F0.014212194147035727
sS'Dictionary Words'
p18
F0.023307278592311926
sS'Negations'
p19
F0.0005317962607429632
sS'Anxiety'
p20
F9.128825484026193e-05
sS'Total Pronouns'
p21
F0.004947560982040807
sS'Personal Pronouns'
p22
F0.003580861462450767
sS'Positive Emotion'
p23
F0.0007165284478991811
sS'Motion'
p24
F0.0006950653982498793
sS'Sadness'
p25
F0.0001194057871319237
sS'Space'
p26
F0.0019424528558156348
sS'First Person Singular'
p27
F0.0016346596023295772
sS'Time'
p28
F0.0014658606834719676
sS'Apostrophe'
p29
F0.00026908478403120324
sS'Quote Marks'
p30
F0.0001480856700694187
sS'Negative Emotion'
p31
F0.0008511177024686021
sS'Family'
p32
F0.0001518346743749736
sS'Semicolon'
p33
F1.9307372173607755e-05
sS'Inclusive'
p34
F0.001233047516097008
sS'Feel'
p35
F0.0002138806956319073
sS'Number'
p36
F0.00031294813440619566
sS'Discrepancy'
p37
F0.0003380664632534135
sS'Quantifiers'
p38
F0.0005850321218818429
sS'See'
p39
F0.00038202353873604476
sS'First Person Plural'
p40
F0.00032906885292008174
sS'Sentences'
p41
I4432
sS'Anger'
p42
F0.0005063030314651898
sS'Affective Processes'
p43
F0.0015712077044580603
sS'Question Marks'
p44
F0.00017835887983677455
sS'Second Person'
p45
F0.0009415624313401142
sS'Third Person Plural'
p46
F0.00027658279264231305
sS'Assent'
p47
F0.0001197806875624792
sS'Relativity'
p48
F0.004063358316575683
sS'Perceptual Processes'
p49
F0.0010524392336769004
sS'Prepositions'
p50
F0.003100614010909184
sS'Common Verbs'
p51
F0.0037386008186069894
sS'Word Count'
p52
I326642
sS'Past Tense'
p53
F0.0008635831417845722
sS'Other Punctuation'
p54
F0.0005516659835624042
sS'Six Letter Words'
p55
F0.0035421529929959127
sS'Inhibition'
p56
F0.00020441445976038115
sS'Hear'
p57
F0.00039345800186798717
sS'Adverbs'
p58
F0.0010486902293713456
sS'Friends'
p59
F3.308496299652203e-05
sS'Achievement'
p60
F0.0003658090951145198
sS'Articles'
p61
F0.001830357627079543
sS'Future Tense'
p62
F0.00022943906349996016
sS' Impersonal Pronouns'
p63
F0.0013666995195900403
sS'Biological Processes'
p64
F0.0010152303659442682
sS'Certainty'
p65
F0.00044191388251728434
sS'Work'
p66
F0.0003250386732916102
sS'Ingestion'
p67
F0.00013496415499997656
sS'Exclamation Marks'
p68
F9.766156215970526e-05
sS'Parenthesis'
p69
F0.0007471765580970924
sS'Swear Words'
p70
F0.0002987956431527259
sS'Words Per Sentence'
p71
F73.70081227436823
sS'Cognitive Processes'
p72
F0.003779933591075732
sS'Fillers'
p73
F0.0001314026009096994
sS'Exclusive'
p74
F0.0004589718521075591
sS'All Punctuation'
p75
F0.0042477156033013455
sS'Money'
p76
F0.0002584938468680106
sS'Causation'
p77
F0.0004297296185242309
sS'Insight'
p78
F0.0004183888804999273
sS'Humans'
p79
F0.0003181967404339725
sS'Conjunctions'
p80
F0.001280191245239361
sS'Dash'
p81
F0.00022109752892010047
sS'Nonfluencies'
p82
F3.917709499304875e-05
sS'Colon'
p83
F0.00016748676735066535
sS'Home'
p84
F0.0001146258066423412
sS'Sexual'
p85
F0.00023243826694440407
stp86
Rp87
.