ccopy_reg
_reconstructor
p0
(ccollections
Counter
p1
c__builtin__
dict
p2
(dp3
S'Death'
p4
F0.0007597061281615373
sS'Social Processes'
p5
F0.018086581675038432
sS'Auxiliary Verbs'
p6
F0.0109774050628846
sS'Religion'
p7
F0.0012475907976230748
sS'Unique Words'
p8
F0.014657449426823054
sS'Health'
p9
F0.0014497144463999976
sS'Body'
p10
F0.004641874140876915
sS'Numerals'
p11
F0.001616989190215382
sS'Present Tense'
p12
F0.01592594956742305
sS'Third Person Singular'
p13
F0.002934277797761534
sS'Tentative'
p14
F0.0023766953183769193
sS'Comma'
p15
F0.016155952340169203
sS'Leisure'
p16
F0.0028157915208923035
sS'Total Function Words'
p17
F0.08519860284996911
sS'Dictionary Words'
p18
F0.1428944499042921
sS'Negations'
p19
F0.003303676190353841
sS'Anxiety'
p20
F0.0002997005826692303
sS'Total Pronouns'
p21
F0.03217250906049226
sS'Personal Pronouns'
p22
F0.0235021015060615
sS'Positive Emotion'
p23
F0.004160959252407686
sS'Motion'
p24
F0.004544297206984608
sS'Sadness'
p25
F0.0005297033554153837
sS'Space'
p26
F0.012754699215923058
sS'First Person Singular'
p27
F0.011911355715853826
sS'Time'
p28
F0.008363737190769218
sS'Apostrophe'
p29
F0.0020142667067769198
sS'Quote Marks'
p30
F0.0007457665661769219
sS'Negative Emotion'
p31
F0.006293712236053835
sS'Family'
p32
F0.0005994011653384606
sS'Semicolon'
p33
F6.272802893076913e-05
sS'Inclusive'
p34
F0.007137055736123065
sS'Quantifiers'
p35
F0.003240948161423072
sS'Number'
p36
F0.0014636540083846133
sS'Discrepancy'
p37
F0.0020212364877692274
sS'Feel'
p38
F0.0014985029133461514
sS'See'
p39
F0.0025091211572307653
sS' Impersonal Pronouns'
p40
F0.008670407554430755
sS'Sentences'
p41
I641
sS'Anger'
p42
F0.0046836928268307616
sS'Affective Processes'
p43
F0.01046164126945383
sS'Question Marks'
p44
F0.001115164958769229
sS'Second Person'
p45
F0.005415519831023069
sS'Third Person Plural'
p46
F0.0013172886075461516
sS'Humans'
p47
F0.001400925979453844
sS'Relativity'
p48
F0.025146969820246112
sS'Perceptual Processes'
p49
F0.00588946493849999
sS'Prepositions'
p50
F0.01826779598083843
sS'Common Verbs'
p51
F0.023843620774684576
sS'Word Count'
p52
I53568
sS'Past Tense'
p53
F0.004885816475607685
sS'Other Punctuation'
p54
F0.001749415029069228
sS'Six Letter Words'
p55
F0.017752032187407667
sS'Inhibition'
p56
F0.0011988023306769213
sS'Hear'
p57
F0.0014078957604461517
sS'Adverbs'
p58
F0.005666431946746145
sS'Friends'
p59
F0.0001951538677846151
sS'Achievement'
p60
F0.0018330524009769202
sS'Articles'
p61
F0.011374682579446136
sS'Future Tense'
p62
F0.0013591072934999978
sS'First Person Plural'
p63
F0.00192365955387692
sS'Biological Processes'
p64
F0.009311627405723062
sS'Certainty'
p65
F0.002557909624176919
sS'Work'
p66
F0.001993357363799997
sS'Ingestion'
p67
F0.0010803160538076907
sS'Exclamation Marks'
p68
F0.0007945550331230756
sS'Parenthesis'
p69
F0.004209747719353839
sS'Swear Words'
p70
F0.004788239541715378
sS'Words Per Sentence'
p71
F83.56942277691108
sS'Cognitive Processes'
p72
F0.021620260638138426
sS'Fillers'
p73
F0.0010663764918230753
sS'Exclusive'
p74
F0.0026763959010461494
sS'All Punctuation'
p75
F0.02780942615930765
sS'Money'
p76
F0.002202450793569227
sS'Causation'
p77
F0.0018260826199846124
sS'Insight'
p78
F0.002753063491961534
sS'Assent'
p79
F0.0014566842273923053
sS'Conjunctions'
p80
F0.0068443249344461434
sS'Dash'
p81
F0.001686687000138459
sS'Nonfluencies'
p82
F0.0006063709463307683
sS'Colon'
p83
F0.000787585252130768
sS'Home'
p84
F0.0006621291942692297
sS'Sexual'
p85
F0.00327579706638461
stp86
Rp87
.