ccopy_reg
_reconstructor
p0
(ccollections
Counter
p1
c__builtin__
dict
p2
(dp3
S'Death'
p4
F0.00011905376694124163
sS'Social Processes'
p5
F0.012548910569482225
sS'Auxiliary Verbs'
p6
F0.008793085989423731
sS'Religion'
p7
F0.0006942121680425104
sS'Unique Words'
p8
F0.003039088726378452
sS'Health'
p9
F0.0003426817886281685
sS'Body'
p10
F0.0011020517615506827
sS'Numerals'
p11
F0.0001576657994627254
sS'Tentative'
p12
F0.0014962162602074963
sS'Present Tense'
p13
F0.010033497534176396
sS'Third Person Singular'
p14
F0.001013565853688949
sS'Space'
p15
F0.0055174985638511915
sS'Leisure'
p16
F0.0015420680488267583
sS'Total Function Words'
p17
F0.0502969988632978
sS'Dictionary Words'
p18
F0.07843149547660812
sS'Negations'
p19
F0.002315113116600631
sS'Anxiety'
p20
F0.0003812938211496523
sS'Total Pronouns'
p21
F0.019784644580539443
sS'Personal Pronouns'
p22
F0.01469348720911297
sS'Positive Emotion'
p23
F0.0033512026559271127
sS'Motion'
p24
F0.0027953502710865853
sS'Sadness'
p25
F0.0005276977777936116
sS'First Person Singular'
p26
F0.006785260298306576
sS'Time'
p27
F0.005882704038116892
sS'Apostrophe'
p28
F0.00011100959349926585
sS'Quote Marks'
p29
F0.00047138856369978113
sS'Negative Emotion'
p30
F0.0020190875339359225
sS'Family'
p31
F0.00012227143631803197
sS'Semicolon'
p32
F1.4479512195556416e-05
sS'Inclusive'
p33
F0.004578743523172618
sS'Quantifiers'
p34
F0.0016385981301304676
sS'Number'
p35
F0.0005872246612642325
sS'Discrepancy'
p36
F0.0018598128997848018
sS'Feel'
p37
F0.0006330764498834945
sS'See'
p38
F0.001544481300859351
sS'First Person Plural'
p39
F0.0010393072087032716
sS'Sentences'
p40
I2496
sS'Anger'
p41
F0.00045851788619261986
sS'Affective Processes'
p42
F0.005376725528616616
sS'Question Marks'
p43
F0.0004231235230479264
sS'Second Person'
p44
F0.005556110596372676
sS'Third Person Plural'
p45
F0.00029924325204149925
sS'Humans'
p46
F0.0007585655555783166
sS'Relativity'
p47
F0.014247840000427512
sS'Adverbs'
p48
F0.004902923712884241
sS'Perceptual Processes'
p49
F0.0038048940380545466
sS'Prepositions'
p50
F0.009104395501628193
sS'Common Verbs'
p51
F0.016372306206453316
sS'Word Count'
p52
I111496
sS'Past Tense'
p53
F0.0038073072900871394
sS'Other Punctuation'
p54
F0.0025387411382875582
sS'Six Letter Words'
p55
F0.00864748645012397
sS'Inhibition'
p56
F0.0005952688347062082
sS'Hear'
p57
F0.0015050648509936694
sS'Comma'
p58
F0.00557139452591243
sS'Friends'
p59
F0.00011100959349926585
sS'Achievement'
p60
F0.0008599221409472115
sS'Articles'
p61
F0.0040912666125888855
sS'Future Tense'
p62
F0.0013771624932662546
sS' Impersonal Pronouns'
p63
F0.0050911573714264744
sS'Biological Processes'
p64
F0.0021574473171379056
sS'Certainty'
p65
F0.002245128807655442
sS'Work'
p66
F0.000353139214102737
sS'Ingestion'
p67
F0.00011744493225284646
sS'Exclamation Marks'
p68
F4.826504065185472e-05
sS'Parenthesis'
p69
F0.0009781714905442557
sS'Swear Words'
p70
F2.8959024391112833e-05
sS'Words Per Sentence'
p71
F44.669871794871796
sS'Cognitive Processes'
p72
F0.015703835393425132
sS'Fillers'
p73
F0.00040783959350817236
sS'Exclusive'
p74
F0.002075396748029753
sS'All Punctuation'
p75
F0.01001660476994825
sS'Money'
p76
F0.00024615170732445905
sS'Causation'
p77
F0.0012621308130460007
sS'Insight'
p78
F0.0023126998645680388
sS'Assent'
p79
F0.000925884363171413
sS'Conjunctions'
p80
F0.005165968184436849
sS'Dash'
p81
F0.0003426817886281685
sS'Nonfluencies'
p82
F0.00015283929539753992
sS'Colon'
p83
F0.0005236756910726236
sS'Home'
p84
F0.0004488648780622489
sS'Sexual'
p85
F0.0006065306775249743
stp86
Rp87
.