ccopy_reg
_reconstructor
p0
(ccollections
Counter
p1
c__builtin__
dict
p2
(dp3
S'Death'
p4
F0.00033596735664758544
sS'Social Processes'
p5
F0.0035451162226029635
sS'Auxiliary Verbs'
p6
F0.001998345162082198
sS'Religion'
p7
F0.00027651245926332184
sS'Unique Words'
p8
F0.002107345807286681
sS'Health'
p9
F0.00025213280557400726
sS'Feel'
p10
F0.00037481751446217056
sS'Body'
p11
F0.0007943048460066979
sS'Numerals'
p12
F0.00018088130156588173
sS'Third Person Singular'
p13
F0.00032527176664195074
sS'Tentative'
p14
F0.00035484192724576444
sS'Leisure'
p15
F0.00068483233653726
sS'Negations'
p16
F0.0006102777826744531
sS'Dictionary Words'
p17
F0.028646093084944528
sS'Total Function Words'
p18
F0.01702533454382238
sS'Anxiety'
p19
F0.00013243657036388903
sS'Total Pronouns'
p20
F0.005341503479284646
sS'Personal Pronouns'
p21
F0.003807944618182605
sS'Positive Emotion'
p22
F0.0008180553473427397
sS'Motion'
p23
F0.001021114269361482
sS'Sadness'
p24
F0.0001307064013923893
sS'Space'
p25
F0.0025966690500444705
sS'First Person Singular'
p26
F0.001675432716765019
sS'Time'
p27
F0.0017079913510468776
sS'Apostrophe'
p28
F0.00021752942614401254
sS'Quote Marks'
p29
F0.00017474706612147353
sS'Negative Emotion'
p30
F0.0013138274017215738
sS'Family'
p31
F0.00017490435420979168
sS'Semicolon'
p32
F8.178980592544215e-06
sS'Inclusive'
p33
F0.0016877011876538354
sS'Quantifiers'
p34
F0.0006472404834292203
sS'Number'
p35
F0.0004986032399685609
sS'Discrepancy'
p36
F0.00027950093294136676
sS'Present Tense'
p37
F0.002724544265847133
sS'See'
p38
F0.0004726507053960648
sS'First Person Plural'
p39
F0.0003907036113823045
sS'Sentences'
p40
I3116
sS'Anger'
p41
F0.000861938723983506
sS'Affective Processes'
p42
F0.0021347139346540407
sS'Question Marks'
p43
F0.00019535180569115224
sS'Second Person'
p44
F0.0012103318396082259
sS'Third Person Plural'
p45
F0.00020620468378510515
sS'Assent'
p46
F0.00020085688878228775
sS'Relativity'
p47
F0.00512601879828877
sS'Adverbs'
p48
F0.0010629529008541118
sS'Perceptual Processes'
p49
F0.0013918422935273803
sS'Prepositions'
p50
F0.00417898721852514
sS'Common Verbs'
p51
F0.003955952709289993
sS'Conjunctions'
p52
F0.0014195249970713761
sS'Past Tense'
p53
F0.0008029556908641966
sS'Other Punctuation'
p54
F0.0005759889794210946
sS'Six Letter Words'
p55
F0.005040296790155374
sS'Inhibition'
p56
F0.00028484872794418413
sS'Hear'
p57
F0.000317564650314361
sS'Comma'
p58
F0.0037522646349179775
sS'Friends'
p59
F2.831185589726844e-05
sS'Achievement'
p60
F0.0005159049296835583
sS'Articles'
p61
F0.0028267815232539354
sS'Future Tense'
p62
F0.00020368807437201464
sS' Impersonal Pronouns'
p63
F0.0015335588611020406
sS'Biological Processes'
p64
F0.0015013148029968182
sS'Certainty'
p65
F0.00047611104333906425
sS'Work'
p66
F0.00043820461405438826
sS'Ingestion'
p67
F0.0002401789108618273
sS'Exclamation Marks'
p68
F0.00017742096362288222
sS'Parenthesis'
p69
F0.0009187197238663609
sS'Swear Words'
p70
F0.0005621476276490968
sS'Words Per Sentence'
p71
F80.91976893453145
sS'Cognitive Processes'
p72
F0.00419094111323732
sS'Fillers'
p73
F0.0003255863428185871
sS'Exclusive'
p74
F0.00041052191051039246
sS'All Punctuation'
p75
F0.00621036287915415
sS'Money'
p76
F0.0003076555007503171
sS'Causation'
p77
F0.0004259361431655719
sS'Insight'
p78
F0.00039086089947062264
sS'Humans'
p79
F0.0003710426003425347
sS'Word Count'
p80
I252146
sS'Dash'
p81
F0.00043269953096325273
sS'Nonfluencies'
p82
F3.9007445902903185e-05
sS'Colon'
p83
F0.0002695917833773228
sS'Home'
p84
F0.00014470504125270534
sS'Sexual'
p85
F0.00035908870563035474
stp86
Rp87
.