ccopy_reg
_reconstructor
p0
(ccollections
Counter
p1
c__builtin__
dict
p2
(dp3
S'Death'
p4
F0.00011152082913328356
sS'Social Processes'
p5
F0.0033570844078192204
sS'Auxiliary Verbs'
p6
F0.0022656336866024975
sS'Religion'
p7
F0.00019825925179250408
sS'Unique Words'
p8
F0.0009020423288792409
sS'Health'
p9
F0.0001287567133351695
sS'Body'
p10
F0.0005879765686383898
sS'Numerals'
p11
F0.0003937234953360537
sS'Present Tense'
p12
F0.003414382076922787
sS'Third Person Singular'
p13
F0.0003165812676649102
sS'Tentative'
p14
F0.0004018290192580217
sS'Leisure'
p15
F0.0005714860199695584
sS'Total Function Words'
p16
F0.014863574367115004
sS'Dictionary Words'
p17
F0.02400697801886141
sS'Negations'
p18
F0.0006758329945971921
sS'Anxiety'
p19
F6.81982012744892e-05
sS'Total Pronouns'
p20
F0.0062186138530988125
sS'Personal Pronouns'
p21
F0.004770426912373867
sS'Positive Emotion'
p22
F0.0007622919164315172
sS'Motion'
p23
F0.000798720190609557
sS'Sadness'
p24
F7.546522272177083e-05
sS'Space'
p25
F0.0018872827366356935
sS'First Person Singular'
p26
F0.002638115119246497
sS'Time'
p27
F0.0013468213082295296
sS'Apostrophe'
p28
F0.00040210852008291714
sS'Quote Marks'
p29
F0.00011981268693851518
sS'Negative Emotion'
p30
F0.0009421041137809218
sS'Family'
p31
F5.301198978850321e-05
sS'Semicolon'
p32
F1.2111702412136058e-05
sS'Inclusive'
p33
F0.0011269473259784444
sS'Feel'
p34
F0.0002658984514172024
sS'Number'
p35
F0.0002211783194339308
sS'Discrepancy'
p36
F0.0004406796339184889
sS'Quantifiers'
p37
F0.00045307083715552044
sS'See'
p38
F0.000355152381500482
sS'First Person Plural'
p39
F0.00024773089779899833
sS'Sentences'
p40
I6237
sS'Anger'
p41
F0.0006862676920599555
sS'Affective Processes'
p42
F0.0017083090417609752
sS'Question Marks'
p43
F0.00015773163218266422
sS'Second Person'
p44
F0.0013065731894445853
sS'Third Person Plural'
p45
F0.00026142643821887524
sS'Assent'
p46
F0.00027950082489544754
sS'Relativity'
p47
F0.003932110771570787
sS'Adverbs'
p48
F0.0010699291576997732
sS'Perceptual Processes'
p49
F0.0010266996967826104
sS'Prepositions'
p50
F0.0029471498646392305
sS'Common Verbs'
p51
F0.004631421835459198
sS'Word Count'
p52
I327619
sS'Past Tense'
p53
F0.0007190624555143547
sS'Other Punctuation'
p54
F0.0005273248896360776
sS'Six Letter Words'
p55
F0.0023432417489818004
sS'Inhibition'
p56
F0.00015037144379375075
sS'Hear'
p57
F0.0003831024639900267
sS'Comma'
p58
F0.002065231595152462
sS'Friends'
p59
F4.304312703389892e-05
sS'Achievement'
p60
F0.0002881653504672064
sS'Articles'
p61
F0.0017180915706323159
sS'Future Tense'
p62
F0.0002899355223582109
sS' Impersonal Pronouns'
p63
F0.0014481869407249454
sS'Biological Processes'
p64
F0.001106823266585972
sS'Certainty'
p65
F0.0003002770528793425
sS'Work'
p66
F0.00025769976055360264
sS'Ingestion'
p67
F0.00014319758928810095
sS'Exclamation Marks'
p68
F0.00036297840459755454
sS'Parenthesis'
p69
F0.0009409861104813401
sS'Swear Words'
p70
F0.0006569201054459335
sS'Words Per Sentence'
p71
F52.528298861632194
sS'Cognitive Processes'
p72
F0.003464226390695808
sS'Fillers'
p73
F0.00017142717260254116
sS'Exclusive'
p74
F0.00048251159071117423
sS'All Punctuation'
p75
F0.004451609638109792
sS'Money'
p76
F0.0004513938322061477
sS'Causation'
p77
F0.0004134748869619987
sS'Insight'
p78
F0.0004377914587279026
sS'Humans'
p79
F0.0003366121601157506
sS'Conjunctions'
p80
F0.001224306779983692
sS'Dash'
p81
F0.000191737565878277
sS'Nonfluencies'
p82
F6.204918312678936e-05
sS'Colon'
p83
F0.000140123080214251
sS'Home'
p84
F7.788756320419805e-05
sS'Sexual'
p85
F0.0003829161301067631
stp86
Rp87
.