ccopy_reg
_reconstructor
p0
(ccollections
Counter
p1
c__builtin__
dict
p2
(dp3
S'Death'
p4
F0.0006655031554459859
sS'Social Processes'
p5
F0.01600550282983565
sS'Auxiliary Verbs'
p6
F0.010559924498515073
sS'Religion'
p7
F0.0012003367415578284
sS'Unique Words'
p8
F0.01343161619667241
sS'Health'
p9
F0.0009389976028895418
sS'Body'
p10
F0.003801572819465426
sS'Numerals'
p11
F0.0014069769907374041
sS'Third Person Singular'
p12
F0.001999548293531775
sS'Tentative'
p13
F0.0023581299024022146
sS'Comma'
p14
F0.013814508423093388
sS'Leisure'
p15
F0.0022760815681691486
sS'Total Function Words'
p16
F0.08075987150288824
sS'Dictionary Words'
p17
F0.1325901081206359
sS'Negations'
p18
F0.0026954397209159337
sS'Anxiety'
p19
F0.00036769809045189176
sS'Total Pronouns'
p20
F0.03127560947876752
sS'Personal Pronouns'
p21
F0.02252986481496137
sS'Positive Emotion'
p22
F0.003555427816766226
sS'Motion'
p23
F0.004044678994970809
sS'Sadness'
p24
F0.0006685419826398032
sS'Space'
p25
F0.0105295362265769
sS'First Person Singular'
p26
F0.013337412553664075
sS'Time'
p27
F0.008697123428705076
sS'Apostrophe'
p28
F0.0025921195963261464
sS'Quote Marks'
p29
F0.0007597067984543218
sS'Negative Emotion'
p30
F0.006475740750024639
sS'Family'
p31
F0.00032819333693226703
sS'Semicolon'
p32
F6.077654387634574e-06
sS'Inclusive'
p33
F0.007031846126493203
sS'Feel'
p34
F0.0013826663731868656
sS'Number'
p35
F0.0009876188379906183
sS'Discrepancy'
p36
F0.001765558599607844
sS'Present Tense'
p37
F0.015564872886732146
sS'See'
p38
F0.0020299365654699478
sS'First Person Plural'
p39
F0.0013218898293105197
sS'Sentences'
p40
I538
sS'Anger'
p41
F0.004643327952152815
sS'Affective Processes'
p42
F0.010061556838729039
sS'Question Marks'
p43
F0.0008569492686564751
sS'Second Person'
p44
F0.0045552019635321135
sS'Third Person Plural'
p45
F0.0013158121749228854
sS'Humans'
p46
F0.0013127733477290681
sS'Relativity'
p47
F0.022444777653534486
sS'Perceptual Processes'
p48
F0.005864936484067365
sS'Prepositions'
p49
F0.0165768023422733
sS'Common Verbs'
p50
F0.021505780050644942
sS'Word Count'
p51
I57365
sS'Past Tense'
p52
F0.004053795476552262
sS'Other Punctuation'
p53
F0.0019600435400121503
sS'Six Letter Words'
p54
F0.016637578886149647
sS'Quantifiers'
p55
F0.0030297107122358355
sS'Inhibition'
p56
F0.0008751822318193788
sS'Hear'
p57
F0.0020238589110823132
sS'Adverbs'
p58
F0.006563866738645341
sS'Friends'
p59
F0.00022487321234247927
sS'Achievement'
p60
F0.0013036568661476161
sS'Articles'
p61
F0.01047179850989437
sS'Future Tense'
p62
F0.0009146869853390035
sS' Impersonal Pronouns'
p63
F0.008745744663806152
sS'Biological Processes'
p64
F0.007761164653009352
sS'Certainty'
p65
F0.0026559349673963093
sS'Work'
p66
F0.0012459191494650877
sS'Ingestion'
p67
F0.0011152495801309444
sS'Exclamation Marks'
p68
F0.00014586370530322978
sS'Parenthesis'
p69
F0.0030388271938172873
sS'Swear Words'
p70
F0.0047192986319982465
sS'Words Per Sentence'
p71
F106.6263940520446
sS'Cognitive Processes'
p72
F0.021135043132999232
sS'Fillers'
p73
F0.0013066956933414336
sS'Exclusive'
p74
F0.0027622939191799143
sS'All Punctuation'
p75
F0.023003921857196866
sS'Money'
p76
F0.001671354956599508
sS'Causation'
p77
F0.0025009547805116272
sS'Insight'
p78
F0.0022365768146495233
sS'Assent'
p79
F0.0008447939598812059
sS'Conjunctions'
p80
F0.007132127423889173
sS'Dash'
p81
F0.0006472701922830822
sS'Nonfluencies'
p82
F0.00039200870800243007
sS'Colon'
p83
F0.0009268422941142725
sS'Home'
p84
F0.0006168819203449093
sS'Sexual'
p85
F0.0027866045367304524
stp86
Rp87
.