ccopy_reg
_reconstructor
p0
(ccollections
Counter
p1
c__builtin__
dict
p2
(dp3
S'Death'
p4
F0.00047519247037422545
sS'Social Processes'
p5
F0.014455855151384332
sS'Auxiliary Verbs'
p6
F0.011177443941302507
sS'Religion'
p7
F0.0007940716281253505
sS'Unique Words'
p8
F0.010773113505984085
sS'Health'
p9
F0.00087118619568608
sS'Feel'
p10
F0.0011004457208666273
sS'Body'
p11
F0.002421814256907237
sS'Numerals'
p12
F0.0012067387734503356
sS'Third Person Singular'
p13
F0.0017152780838508225
sS'Third Person Plural'
p14
F0.0014589242511489377
sS'Leisure'
p15
F0.0013776413285849255
sS'Negations'
p16
F0.004049556885689123
sS'Dictionary Words'
p17
F0.11625750521905556
sS'Total Function Words'
p18
F0.07375904178308702
sS'Anxiety'
p19
F0.00035847853028231043
sS'Total Pronouns'
p20
F0.026867132173658513
sS'Exclusive'
p21
F0.003507670735262375
sS'Positive Emotion'
p22
F0.003490997315249244
sS'Motion'
p23
F0.003987031560639884
sS'Sadness'
p24
F0.0006148323629841952
sS'Space'
p25
F0.008901522109510163
sS'First Person Singular'
p26
F0.010185375450521228
sS'Time'
p27
F0.008265847971509553
sS'Apostrophe'
p28
F0.001740288213870519
sS'Quote Marks'
p29
F0.0006940311080465662
sS'Negative Emotion'
p30
F0.0041016613232301566
sS'Family'
p31
F0.00039182537030857183
sS'Semicolon'
p32
F1.667342001313072e-05
sS'Inclusive'
p33
F0.006010767914733623
sS'Quantifiers'
p34
F0.0024864237594581185
sS'Number'
p35
F0.0010337520408141045
sS'Discrepancy'
p36
F0.0021842180217201243
sS'Present Tense'
p37
F0.014066113958577405
sS'See'
p38
F0.001938285076526446
sS' Impersonal Pronouns'
p39
F0.007636426366013869
sS'Sentences'
p40
I467
sS'Anger'
p41
F0.0024176459019039542
sS'Affective Processes'
p42
F0.007626005478505662
sS'Question Marks'
p43
F0.0005898222329644992
sS'Second Person'
p44
F0.0046247898761421335
sS'Tentative'
p45
F0.0025593699720155654
sS'Humans'
p46
F0.0010879406558567794
sS'Relativity'
p47
F0.02011231289083893
sS'Adverbs'
p48
F0.00639425657503563
sS'Perceptual Processes'
p49
F0.004487234161033805
sS'Prepositions'
p50
F0.014126555106125002
sS'Common Verbs'
p51
F0.02054999016618361
sS'Conjunctions'
p52
F0.0078094130986501005
sS'Past Tense'
p53
F0.0037911188754855972
sS'Other Punctuation'
p54
F0.0012421697909782384
sS'Six Letter Words'
p55
F0.015014414721824213
sS'Inhibition'
p56
F0.0010149944432993325
sS'Hear'
p57
F0.001171307755922433
sS'Comma'
p58
F0.007313378853259462
sS'Friends'
p59
F0.00010837723008534965
sS'Achievement'
p60
F0.0016214900962769625
sS'Articles'
p61
F0.008907774642015085
sS'Future Tense'
p62
F0.001325536891043892
sS'First Person Plural'
p63
F0.001246338145981521
sS'Biological Processes'
p64
F0.004770682301257027
sS'Certainty'
p65
F0.0020779249691364157
sS'Work'
p66
F0.001048341283325594
sS'Ingestion'
p67
F0.0005752329904530098
sS'Exclamation Marks'
p68
F0.00013547153760668708
sS'Parenthesis'
p69
F0.0015798065462441356
sS'Swear Words'
p70
F0.0017694666988934975
sS'Words Per Sentence'
p71
F148.3254817987152
sS'Cognitive Processes'
p72
F0.02098558326402665
sS'Fillers'
p73
F0.0014589242511489377
sS'Personal Pronouns'
p74
F0.019230705807644643
sS'All Punctuation'
p75
F0.012732240357526946
sS'Money'
p76
F0.0013442944885586642
sS'Causation'
p77
F0.002157123714198787
sS'Insight'
p78
F0.002544780729504076
sS'Assent'
p79
F0.0004668557603676601
sS'Word Count'
p80
I69268
sS'Dash'
p81
F0.000331384222760973
sS'Nonfluencies'
p82
F0.00028136396272158086
sS'Colon'
p83
F0.0005648121029448031
sS'Home'
p84
F0.00039807790281349594
sS'Sexual'
p85
F0.0011650552234175088
stp86
Rp87
.