ccopy_reg
_reconstructor
p0
(ccollections
Counter
p1
c__builtin__
dict
p2
(dp3
S'Death'
p4
F0.00010976509476253428
sS'Social Processes'
p5
F0.007341231679567625
sS'Auxiliary Verbs'
p6
F0.00509539046010973
sS'Religion'
p7
F0.00012911217981060688
sS'Unique Words'
p8
F0.002863368587114743
sS'Health'
p9
F0.0002748075753767045
sS'Body'
p10
F0.0009432691057111309
sS'Numerals'
p11
F0.00047222681056111873
sS'Present Tense'
p12
F0.006916385485450766
sS'Third Person Singular'
p13
F0.0008516665805855629
sS'Tentative'
p14
F0.0008840433351558066
sS'Leisure'
p15
F0.0009480071673555569
sS'Total Function Words'
p16
F0.03141137451019214
sS'Dictionary Words'
p17
F0.049692395688268894
sS'Negations'
p18
F0.0013471888608984422
sS'Anxiety'
p19
F0.00015359216497347423
sS'Total Pronouns'
p20
F0.013287893881792547
sS'Personal Pronouns'
p21
F0.010330553738730024
sS'Positive Emotion'
p22
F0.001671746083541619
sS'Motion'
p23
F0.0014597178249535585
sS'Sadness'
p24
F0.00017096505766970267
sS'Space'
p25
F0.0037403048298039108
sS'First Person Singular'
p26
F0.005852295807806774
sS'Time'
p27
F0.0029526020814180987
sS'Apostrophe'
p28
F0.0005073674344239444
sS'Quote Marks'
p29
F0.00018596891954371817
sS'Negative Emotion'
p30
F0.0020342077993402035
sS'Family'
p31
F0.00017925666554744805
sS'Semicolon'
p32
F8.686446348114224e-06
sS'Inclusive'
p33
F0.0022253096189987164
sS'Quantifiers'
p34
F0.0010368458231885432
sS'Number'
p35
F0.0003529855925097325
sS'Discrepancy'
p36
F0.0010403993694218627
sS'Feel'
p37
F0.000499075826546199
sS'See'
p38
F0.0006704357226862705
sS'First Person Plural'
p39
F0.00046748874891669267
sS'Sentences'
p40
I2352
sS'Anger'
p41
F0.0013720636845316785
sS'Affective Processes'
p42
F0.003712271298407724
sS'Question Marks'
p43
F0.00030639465300621077
sS'Second Person'
p44
F0.0024965636481421014
sS'Third Person Plural'
p45
F0.0006625389532788939
sS'Humans'
p46
F0.0006937311924380314
sS'Relativity'
p47
F0.007709221133951373
sS'Perceptual Processes'
p48
F0.0018928556269481628
sS'Prepositions'
p49
F0.005340190311738403
sS'Common Verbs'
p50
F0.0095708845217404
sS'Word Count'
p51
I159144
sS'Past Tense'
p52
F0.0015244713340940462
sS'Other Punctuation'
p53
F0.000933792982422279
sS'Six Letter Words'
p54
F0.004655540404118854
sS'Inhibition'
p55
F0.0003545649463912078
sS'Hear'
p56
F0.0005938370594347177
sS'Comma'
p57
F0.003754913853207557
sS'Friends'
p58
F6.159480137753721e-05
sS'Achievement'
p59
F0.0006171325291864788
sS'Articles'
p60
F0.0035819746031860106
sS'Future Tense'
p61
F0.0004935480879610354
sS' Impersonal Pronouns'
p62
F0.002957340143062524
sS'Biological Processes'
p63
F0.002056713592151227
sS'Certainty'
p64
F0.0008086291873153603
sS'Work'
p65
F0.0003877313779021894
sS'Ingestion'
p66
F0.0002961288527766213
sS'Exclamation Marks'
p67
F0.00013187604910318867
sS'Parenthesis'
p68
F0.0012224199042618926
sS'Swear Words'
p69
F0.001264667620591357
sS'Words Per Sentence'
p70
F67.66326530612245
sS'Cognitive Processes'
p71
F0.007744756596284567
sS'Colon'
p72
F0.00030639465300621077
sS'Fillers'
p73
F0.000524345488649804
sS'Exclusive'
p74
F0.0011537180104177164
sS'All Punctuation'
p75
F0.007432834204693194
sS'Money'
p76
F0.0006167376907161099
sS'Causation'
p77
F0.000910497512670518
sS'Insight'
p78
F0.0008836484966854378
sS'Assent'
p79
F0.0005997596364902503
sS'Conjunctions'
p80
F0.0027014848142635235
sS'Dash'
p81
F0.000710709246663891
sS'Nonfluencies'
p82
F0.00010700122546995248
sS'Adverbs'
p83
F0.0024223340157127618
sS'Home'
p84
F0.00017609795778449744
sS'Sexual'
p85
F0.0008046808026116721
stp86
Rp87
.