ccopy_reg
_reconstructor
p0
(ccollections
Counter
p1
c__builtin__
dict
p2
(dp3
S'Death'
p4
F0.00038985823118139156
sS'Social Processes'
p5
F0.008562365088021096
sS'Auxiliary Verbs'
p6
F0.004831753609854481
sS'Religion'
p7
F0.0007672741783889091
sS'Unique Words'
p8
F0.004714934388099773
sS'Health'
p9
F0.0004403186050754369
sS'Body'
p10
F0.0018525178361101587
sS'Numerals'
p11
F0.0004935439309636765
sS'Tentative'
p12
F0.0009981476699041302
sS'Present Tense'
p13
F0.007213759752852842
sS'Third Person Singular'
p14
F0.0008585175941973198
sS'Space'
p15
F0.004993503301514845
sS'Leisure'
p16
F0.0017156527123975422
sS'Total Function Words'
p17
F0.03710150833409577
sS'Dictionary Words'
p18
F0.062149208449501635
sS'Negations'
p19
F0.0016506763405339771
sS'Anxiety'
p20
F0.00020598892356747285
sS'Total Pronouns'
p21
F0.01353167505958674
sS'Personal Pronouns'
p22
F0.010152903722681347
sS'Positive Emotion'
p23
F0.001802748700214662
sS'Motion'
p24
F0.0016492938645368798
sS'Sadness'
p25
F0.00024884567947748397
sS'First Person Singular'
p26
F0.005101336429288422
sS'Time'
p27
F0.0035031941766441354
sS'Apostrophe'
p28
F0.0006255703886864528
sS'Quote Marks'
p29
F0.0003442365232771862
sS'Negative Emotion'
p30
F0.0029896043437225507
sS'Family'
p31
F0.0003960793731683287
sS'Semicolon'
p32
F3.663561392307403e-05
sS'Inclusive'
p33
F0.00308153899752951
sS'Feel'
p34
F0.0006933117125442124
sS'Number'
p35
F0.0010499905197952728
sS'Discrepancy'
p36
F0.000953908437997022
sS'Quantifiers'
p37
F0.00141772913502311
sS'See'
p38
F0.0009442311060173421
sS'First Person Plural'
p39
F0.0006152018187082244
sS'Sentences'
p40
I3063
sS'Anger'
p41
F0.0021449115094962024
sS'Affective Processes'
p42
F0.004797882947925602
sS'Question Marks'
p43
F0.0005903172507604759
sS'Second Person'
p44
F0.0030552719535846644
sS'Third Person Plural'
p45
F0.0005225759269027164
sS'Humans'
p46
F0.0007838638903540746
sS'Relativity'
p47
F0.009836316719346103
sS'Adverbs'
p48
F0.002588686304564382
sS'Perceptual Processes'
p49
F0.002943291397819797
sS'Prepositions'
p50
F0.008031494305135795
sS'Common Verbs'
p51
F0.01017986200462474
sS'Word Count'
p52
I120278
sS'Past Tense'
p53
F0.001995604101809712
sS'Other Punctuation'
p54
F0.002637072964462782
sS'Six Letter Words'
p55
F0.00871927611369162
sS'Inhibition'
p56
F0.0004845578369825452
sS'Hear'
p57
F0.0011101282256689982
sS'Colon'
p58
F0.0005018387869462595
sS'Friends'
p59
F8.502227382147369e-05
sS'Achievement'
p60
F0.0006781044765761439
sS'Articles'
p61
F0.004620234782298619
sS'Future Tense'
p62
F0.0004838665989839967
sS' Impersonal Pronouns'
p63
F0.003378771336905394
sS'Biological Processes'
p64
F0.003504576652641233
sS'Certainty'
p65
F0.000985705385930256
sS'Work'
p66
F0.0009310975840449193
sS'Ingestion'
p67
F0.0004237288931102713
sS'Exclamation Marks'
p68
F0.000694002950542761
sS'Parenthesis'
p69
F0.002815412368088312
sS'Swear Words'
p70
F0.002120026941548454
sS'Words Per Sentence'
p71
F39.26803787136794
sS'Cognitive Processes'
p72
F0.009083558538926714
sS'Fillers'
p73
F0.0004942351689622252
sS'Exclusive'
p74
F0.0010859348957197982
sS'All Punctuation'
p75
F0.01445793397764182
sS'Money'
p76
F0.0006435425766487156
sS'Causation'
p77
F0.0010002213838997758
sS'Insight'
p78
F0.0010181935718620385
sS'Assent'
p79
F0.0005287970688896535
sS'Conjunctions'
p80
F0.003321398583025863
sS'Dash'
p81
F0.0008156608382873087
sS'Nonfluencies'
p82
F0.0002730390094266838
sS'Comma'
p83
F0.007147400904992178
sS'Home'
p84
F0.0003020710053657236
sS'Sexual'
p85
F0.0012435371593888715
stp86
Rp87
.